target datalayout = "e-m:e-p270:32:32-p271:32:32-p272:64:64-i64:64-i128:128-f80:128-n8:16:32:64-S128"
target triple = "x86_64-pc-linux-gnu"

%"class.rocksdb::port::Mutex" = type { %union.pthread_mutex_t }
%union.pthread_mutex_t = type { %struct.__pthread_mutex_s }
%struct.__pthread_mutex_s = type { i32, i32, i32, i32, i32, i16, i16, %struct.__pthread_internal_list }
%struct.__pthread_internal_list = type { ptr, ptr }
%"class.std::__cxx11::basic_string" = type { %"struct.std::__cxx11::basic_string<char>::_Alloc_hider", i64, %union.anon }
%"struct.std::__cxx11::basic_string<char>::_Alloc_hider" = type { ptr }
%union.anon = type { i64, [8 x i8] }
%"class.rocksdb::port::CondVar" = type { %union.pthread_cond_t, ptr }
%union.pthread_cond_t = type { %struct.__pthread_cond_s }
%struct.__pthread_cond_s = type { %union.__atomic_wide_counter, %union.__atomic_wide_counter, [2 x i32], [2 x i32], i32, i32, [2 x i32] }
%union.__atomic_wide_counter = type { i64 }
%struct.timespec = type { i64, i64 }

@.str.11 = private unnamed_addr constant [10 x i8] c"timedwait\00", align 1
@stderr = external global ptr, align 8
@.str.21 = private unnamed_addr constant [16 x i8] c"pthread %s: %s\0A\00", align 1

; Function Attrs: mustprogress nounwind uwtable
define available_externally noundef ptr @_ZNKSt7__cxx1112basic_stringIcSt11char_traitsIcESaIcEE7_M_dataEv(ptr noundef nonnull align 8 dereferenceable(32) %0) #3 align 2 {
  %2 = alloca ptr, align 8
  store ptr %0, ptr %2, align 8, !tbaa !33
  %3 = load ptr, ptr %2, align 8
  %4 = getelementptr inbounds nuw %"class.std::__cxx11::basic_string", ptr %3, i32 0, i32 0
  %5 = getelementptr inbounds nuw %"struct.std::__cxx11::basic_string<char>::_Alloc_hider", ptr %4, i32 0, i32 0
  %6 = load ptr, ptr %5, align 8, !tbaa !55
  ret ptr %6
}

; Function Attrs: mustprogress nounwind uwtable
define available_externally noundef ptr @_ZNKSt7__cxx1112basic_stringIcSt11char_traitsIcESaIcEE5c_strEv(ptr noundef nonnull align 8 dereferenceable(32) %0) #3 align 2 {
  %2 = alloca ptr, align 8
  store ptr %0, ptr %2, align 8, !tbaa !33
  %3 = load ptr, ptr %2, align 8
  %4 = call noundef ptr @_ZNKSt7__cxx1112basic_stringIcSt11char_traitsIcESaIcEE7_M_dataEv(ptr noundef nonnull align 8 dereferenceable(32) %3)
  ret ptr %4
}

; Function Attrs: mustprogress uwtable
define internal noundef i32 @_ZN7rocksdb4portL11PthreadCallEPKci(ptr noundef %0, i32 noundef %1) #0 {
  %3 = alloca ptr, align 8
  %4 = alloca i32, align 4
  %5 = alloca %"class.std::__cxx11::basic_string", align 8
  store ptr %0, ptr %3, align 8, !tbaa !13
  store i32 %1, ptr %4, align 4, !tbaa !15
  %6 = load i32, ptr %4, align 4, !tbaa !15
  %7 = icmp ne i32 %6, 0
  br i1 %7, label %8, label %20

8:                                                ; preds = %2
  %9 = load i32, ptr %4, align 4, !tbaa !15
  %10 = icmp ne i32 %9, 110
  br i1 %10, label %11, label %20

11:                                               ; preds = %8
  %12 = load i32, ptr %4, align 4, !tbaa !15
  %13 = icmp ne i32 %12, 16
  br i1 %13, label %14, label %20

14:                                               ; preds = %11
  %15 = load ptr, ptr @stderr, align 8, !tbaa !17
  %16 = load ptr, ptr %3, align 8, !tbaa !13
  call void @llvm.lifetime.start.p0(i64 32, ptr %5) #13
  %17 = load i32, ptr %4, align 4, !tbaa !15
  call void @_ZN7rocksdb8errnoStrB5cxx11Ei(ptr dead_on_unwind writable sret(%"class.std::__cxx11::basic_string") align 8 %5, i32 noundef %17)
  %18 = call noundef ptr @_ZNKSt7__cxx1112basic_stringIcSt11char_traitsIcESaIcEE5c_strEv(ptr noundef nonnull align 8 dereferenceable(32) %5) #13
  %19 = call i32 (ptr, ptr, ...) @fprintf(ptr noundef %15, ptr noundef @.str.21, ptr noundef %16, ptr noundef %18) #13
  call void @_ZNSt7__cxx1112basic_stringIcSt11char_traitsIcESaIcEED2Ev(ptr noundef nonnull align 8 dereferenceable(32) %5) #13
  call void @llvm.lifetime.end.p0(i64 32, ptr %5) #13
  call void @abort() #14
  unreachable

20:                                               ; preds = %11, %8, %2
  %21 = load i32, ptr %4, align 4, !tbaa !15
  ret i32 %21
}

; Function Attrs: mustprogress uwtable
define noundef zeroext i1 @_ZN7rocksdb4port7CondVar9TimedWaitEm(ptr noundef nonnull align 8 dereferenceable(56) %0, i64 noundef %1) #0 align 2 {
  %3 = alloca i1, align 1
  %4 = alloca ptr, align 8
  %5 = alloca i64, align 8
  %6 = alloca %struct.timespec, align 8
  %7 = alloca i32, align 4
  %8 = alloca i32, align 4
  store ptr %0, ptr %4, align 8, !tbaa !19
  store i64 %1, ptr %5, align 8, !tbaa !23
  %9 = load ptr, ptr %4, align 8
  call void @llvm.lifetime.start.p0(i64 16, ptr %6) #13
  %10 = load i64, ptr %5, align 8, !tbaa !23
  %11 = udiv i64 %10, 1000000
  %12 = getelementptr inbounds nuw %struct.timespec, ptr %6, i32 0, i32 0
  store i64 %11, ptr %12, align 8, !tbaa !25
  %13 = load i64, ptr %5, align 8, !tbaa !23
  %14 = urem i64 %13, 1000000
  %15 = mul i64 %14, 1000
  %16 = getelementptr inbounds nuw %struct.timespec, ptr %6, i32 0, i32 1
  store i64 %15, ptr %16, align 8, !tbaa !27
  call void @llvm.lifetime.start.p0(i64 4, ptr %7) #13
  %17 = getelementptr inbounds nuw %"class.rocksdb::port::CondVar", ptr %9, i32 0, i32 0
  %18 = getelementptr inbounds nuw %"class.rocksdb::port::CondVar", ptr %9, i32 0, i32 1
  %19 = load ptr, ptr %18, align 8, !tbaa !21
  %20 = getelementptr inbounds nuw %"class.rocksdb::port::Mutex", ptr %19, i32 0, i32 0
  %21 = call i32 @pthread_cond_timedwait(ptr noundef %17, ptr noundef %20, ptr noundef %6)
  store i32 %21, ptr %7, align 4, !tbaa !15
  %22 = load i32, ptr %7, align 4, !tbaa !15
  %23 = icmp eq i32 %22, 110
  br i1 %23, label %24, label %25

24:                                               ; preds = %2
  store i1 true, ptr %3, align 1
  store i32 1, ptr %8, align 4
  br label %32

25:                                               ; preds = %2
  %26 = load i32, ptr %7, align 4, !tbaa !15
  %27 = icmp ne i32 %26, 0
  br i1 %27, label %28, label %31

28:                                               ; preds = %25
  %29 = load i32, ptr %7, align 4, !tbaa !15
  %30 = call noundef i32 @_ZN7rocksdb4portL11PthreadCallEPKci(ptr noundef @.str.11, i32 noundef %29)
  br label %31

31:                                               ; preds = %28, %25
  store i1 false, ptr %3, align 1
  store i32 1, ptr %8, align 4
  br label %32

32:                                               ; preds = %31, %24
  call void @llvm.lifetime.end.p0(i64 4, ptr %7) #13
  call void @llvm.lifetime.end.p0(i64 16, ptr %6) #13
  %33 = load i1, ptr %3, align 1
  ret i1 %33
}