; Function Attrs: mustprogress uwtable
define noundef zeroext i1 @_ZN7rocksdb4port7CondVar9TimedWaitEm(ptr noundef nonnull align 8 dereferenceable(56) %0, i64 noundef %1) local_unnamed_addr #0 align 2 {
  %3 = alloca %"class.std::__cxx11::basic_string", align 8
  %4 = alloca %struct.timespec, align 8
  call void @llvm.lifetime.start.p0(i64 16, ptr nonnull %4) #17
  %5 = udiv i64 %1, 1000000
  store i64 %5, ptr %4, align 8, !tbaa !17
  %6 = urem i64 %1, 1000000
  %7 = mul nuw nsw i64 %6, 1000
  %8 = getelementptr inbounds nuw i8, ptr %4, i64 8
  store i64 %7, ptr %8, align 8, !tbaa !19
  %9 = getelementptr inbounds nuw i8, ptr %0, i64 48
  %10 = load ptr, ptr %9, align 8, !tbaa !14
  %11 = call i32 @pthread_cond_timedwait(ptr noundef nonnull %0, ptr noundef %10, ptr noundef nonnull %4)
  switch i32 %11, label %12 [
    i32 110, label %_ZN7rocksdb4portL11PthreadCallEPKci.exit
    i32 0, label %_ZN7rocksdb4portL11PthreadCallEPKci.exit
    i32 16, label %_ZN7rocksdb4portL11PthreadCallEPKci.exit
  ]

12:                                               ; preds = %2
  %13 = load ptr, ptr @stderr, align 8, !tbaa !4
  call void @llvm.lifetime.start.p0(i64 32, ptr nonnull %3) #17
  call void @_ZN7rocksdb8errnoStrB5cxx11Ei(ptr dead_on_unwind nonnull writable sret(%"class.std::__cxx11::basic_string") align 8 %3, i32 noundef %11)
  %14 = load ptr, ptr %3, align 8, !tbaa !9
  %15 = call i32 (ptr, ptr, ...) @fprintf(ptr noundef %13, ptr noundef nonnull @.str.21, ptr noundef nonnull @.str.11, ptr noundef %14) #18
  call void @_ZNSt7__cxx1112basic_stringIcSt11char_traitsIcESaIcEED2Ev(ptr noundef nonnull align 8 dereferenceable(32) %3) #17
  call void @llvm.lifetime.end.p0(i64 32, ptr nonnull %3) #17
  call void @abort() #19
  unreachable

_ZN7rocksdb4portL11PthreadCallEPKci.exit:         ; preds = %2, %2, %2
  %16 = icmp eq i32 %11, 110
  call void @llvm.lifetime.end.p0(i64 16, ptr nonnull %4) #17
  ret i1 %16
}